target datalayout = "e-m:e-p270:32:32-p271:32:32-p272:64:64-i64:64-i128:128-f80:128-n8:16:32:64-S128"
target triple = "x86_64-pc-linux-gnu"

%struct.DES_ks = type { [16 x %union.anon] }
%union.anon = type { [2 x i32] }

@Curl_ntlm_core_mk_lm_hash.magic = internal constant [8 x i8] c"KGS!@#$%", align 1

; Function Attrs: nounwind uwtable
define internal void @extend_key_56_to_64(ptr noundef %0, ptr noundef %1) #0 {
  %3 = alloca ptr, align 8
  %4 = alloca ptr, align 8
  store ptr %0, ptr %3, align 8, !tbaa !4
  store ptr %1, ptr %4, align 8, !tbaa !4
  %5 = load ptr, ptr %3, align 8, !tbaa !4
  %6 = getelementptr inbounds i8, ptr %5, i64 0
  %7 = load i8, ptr %6, align 1, !tbaa !16
  %8 = load ptr, ptr %4, align 8, !tbaa !4
  %9 = getelementptr inbounds i8, ptr %8, i64 0
  store i8 %7, ptr %9, align 1, !tbaa !16
  %10 = load ptr, ptr %3, align 8, !tbaa !4
  %11 = getelementptr inbounds i8, ptr %10, i64 0
  %12 = load i8, ptr %11, align 1, !tbaa !16
  %13 = zext i8 %12 to i32
  %14 = shl i32 %13, 7
  %15 = and i32 %14, 255
  %16 = load ptr, ptr %3, align 8, !tbaa !4
  %17 = getelementptr inbounds i8, ptr %16, i64 1
  %18 = load i8, ptr %17, align 1, !tbaa !16
  %19 = zext i8 %18 to i32
  %20 = ashr i32 %19, 1
  %21 = or i32 %15, %20
  %22 = trunc i32 %21 to i8
  %23 = load ptr, ptr %4, align 8, !tbaa !4
  %24 = getelementptr inbounds i8, ptr %23, i64 1
  store i8 %22, ptr %24, align 1, !tbaa !16
  %25 = load ptr, ptr %3, align 8, !tbaa !4
  %26 = getelementptr inbounds i8, ptr %25, i64 1
  %27 = load i8, ptr %26, align 1, !tbaa !16
  %28 = zext i8 %27 to i32
  %29 = shl i32 %28, 6
  %30 = and i32 %29, 255
  %31 = load ptr, ptr %3, align 8, !tbaa !4
  %32 = getelementptr inbounds i8, ptr %31, i64 2
  %33 = load i8, ptr %32, align 1, !tbaa !16
  %34 = zext i8 %33 to i32
  %35 = ashr i32 %34, 2
  %36 = or i32 %30, %35
  %37 = trunc i32 %36 to i8
  %38 = load ptr, ptr %4, align 8, !tbaa !4
  %39 = getelementptr inbounds i8, ptr %38, i64 2
  store i8 %37, ptr %39, align 1, !tbaa !16
  %40 = load ptr, ptr %3, align 8, !tbaa !4
  %41 = getelementptr inbounds i8, ptr %40, i64 2
  %42 = load i8, ptr %41, align 1, !tbaa !16
  %43 = zext i8 %42 to i32
  %44 = shl i32 %43, 5
  %45 = and i32 %44, 255
  %46 = load ptr, ptr %3, align 8, !tbaa !4
  %47 = getelementptr inbounds i8, ptr %46, i64 3
  %48 = load i8, ptr %47, align 1, !tbaa !16
  %49 = zext i8 %48 to i32
  %50 = ashr i32 %49, 3
  %51 = or i32 %45, %50
  %52 = trunc i32 %51 to i8
  %53 = load ptr, ptr %4, align 8, !tbaa !4
  %54 = getelementptr inbounds i8, ptr %53, i64 3
  store i8 %52, ptr %54, align 1, !tbaa !16
  %55 = load ptr, ptr %3, align 8, !tbaa !4
  %56 = getelementptr inbounds i8, ptr %55, i64 3
  %57 = load i8, ptr %56, align 1, !tbaa !16
  %58 = zext i8 %57 to i32
  %59 = shl i32 %58, 4
  %60 = and i32 %59, 255
  %61 = load ptr, ptr %3, align 8, !tbaa !4
  %62 = getelementptr inbounds i8, ptr %61, i64 4
  %63 = load i8, ptr %62, align 1, !tbaa !16
  %64 = zext i8 %63 to i32
  %65 = ashr i32 %64, 4
  %66 = or i32 %60, %65
  %67 = trunc i32 %66 to i8
  %68 = load ptr, ptr %4, align 8, !tbaa !4
  %69 = getelementptr inbounds i8, ptr %68, i64 4
  store i8 %67, ptr %69, align 1, !tbaa !16
  %70 = load ptr, ptr %3, align 8, !tbaa !4
  %71 = getelementptr inbounds i8, ptr %70, i64 4
  %72 = load i8, ptr %71, align 1, !tbaa !16
  %73 = zext i8 %72 to i32
  %74 = shl i32 %73, 3
  %75 = and i32 %74, 255
  %76 = load ptr, ptr %3, align 8, !tbaa !4
  %77 = getelementptr inbounds i8, ptr %76, i64 5
  %78 = load i8, ptr %77, align 1, !tbaa !16
  %79 = zext i8 %78 to i32
  %80 = ashr i32 %79, 5
  %81 = or i32 %75, %80
  %82 = trunc i32 %81 to i8
  %83 = load ptr, ptr %4, align 8, !tbaa !4
  %84 = getelementptr inbounds i8, ptr %83, i64 5
  store i8 %82, ptr %84, align 1, !tbaa !16
  %85 = load ptr, ptr %3, align 8, !tbaa !4
  %86 = getelementptr inbounds i8, ptr %85, i64 5
  %87 = load i8, ptr %86, align 1, !tbaa !16
  %88 = zext i8 %87 to i32
  %89 = shl i32 %88, 2
  %90 = and i32 %89, 255
  %91 = load ptr, ptr %3, align 8, !tbaa !4
  %92 = getelementptr inbounds i8, ptr %91, i64 6
  %93 = load i8, ptr %92, align 1, !tbaa !16
  %94 = zext i8 %93 to i32
  %95 = ashr i32 %94, 6
  %96 = or i32 %90, %95
  %97 = trunc i32 %96 to i8
  %98 = load ptr, ptr %4, align 8, !tbaa !4
  %99 = getelementptr inbounds i8, ptr %98, i64 6
  store i8 %97, ptr %99, align 1, !tbaa !16
  %100 = load ptr, ptr %3, align 8, !tbaa !4
  %101 = getelementptr inbounds i8, ptr %100, i64 6
  %102 = load i8, ptr %101, align 1, !tbaa !16
  %103 = zext i8 %102 to i32
  %104 = shl i32 %103, 1
  %105 = and i32 %104, 255
  %106 = trunc i32 %105 to i8
  %107 = load ptr, ptr %4, align 8, !tbaa !4
  %108 = getelementptr inbounds i8, ptr %107, i64 7
  store i8 %106, ptr %108, align 1, !tbaa !16
  ret void
}

; Function Attrs: nounwind uwtable
define internal void @setup_des_key(ptr noundef %0, ptr noundef %1) #0 {
  %3 = alloca ptr, align 8
  %4 = alloca ptr, align 8
  %5 = alloca [8 x i8], align 1
  store ptr %0, ptr %3, align 8, !tbaa !4
  store ptr %1, ptr %4, align 8, !tbaa !9
  call void @llvm.lifetime.start.p0(i64 8, ptr %5) #7
  %6 = load ptr, ptr %3, align 8, !tbaa !4
  call void @extend_key_56_to_64(ptr noundef %6, ptr noundef %5)
  call void @DES_set_odd_parity(ptr noundef %5)
  %7 = load ptr, ptr %4, align 8, !tbaa !9
  call void @DES_set_key_unchecked(ptr noundef %5, ptr noundef %7)
  call void @llvm.lifetime.end.p0(i64 8, ptr %5) #7
  ret void
}

; Function Attrs: nounwind uwtable
define dso_local i32 @Curl_ntlm_core_mk_lm_hash(ptr noundef %0, ptr noundef %1) #0 {
  %3 = alloca ptr, align 8
  %4 = alloca ptr, align 8
  %5 = alloca [14 x i8], align 1
  %6 = alloca i64, align 8
  %7 = alloca %struct.DES_ks, align 4
  store ptr %0, ptr %3, align 8, !tbaa !4
  store ptr %1, ptr %4, align 8, !tbaa !4
  call void @llvm.lifetime.start.p0(i64 14, ptr %5) #7
  call void @llvm.lifetime.start.p0(i64 8, ptr %6) #7
  %8 = load ptr, ptr %3, align 8, !tbaa !4
  %9 = call i64 @strlen(ptr noundef %8) #8
  %10 = icmp ult i64 %9, 14
  br i1 %10, label %11, label %14

11:                                               ; preds = %2
  %12 = load ptr, ptr %3, align 8, !tbaa !4
  %13 = call i64 @strlen(ptr noundef %12) #8
  br label %15

14:                                               ; preds = %2
  br label %15

15:                                               ; preds = %14, %11
  %16 = phi i64 [ %13, %11 ], [ 14, %14 ]
  store i64 %16, ptr %6, align 8, !tbaa !11
  %17 = getelementptr inbounds [14 x i8], ptr %5, i64 0, i64 0
  %18 = load ptr, ptr %3, align 8, !tbaa !4
  %19 = load i64, ptr %6, align 8, !tbaa !11
  call void @Curl_strntoupper(ptr noundef %17, ptr noundef %18, i64 noundef %19)
  %20 = load i64, ptr %6, align 8, !tbaa !11
  %21 = getelementptr inbounds nuw [14 x i8], ptr %5, i64 0, i64 %20
  %22 = load i64, ptr %6, align 8, !tbaa !11
  %23 = sub i64 14, %22
  call void @llvm.memset.p0.i64(ptr align 1 %21, i8 0, i64 %23, i1 false)
  call void @llvm.lifetime.start.p0(i64 128, ptr %7) #7
  %24 = getelementptr inbounds [14 x i8], ptr %5, i64 0, i64 0
  call void @setup_des_key(ptr noundef %24, ptr noundef %7)
  %25 = load ptr, ptr %4, align 8, !tbaa !4
  call void @DES_ecb_encrypt(ptr noundef @Curl_ntlm_core_mk_lm_hash.magic, ptr noundef %25, ptr noundef %7, i32 noundef 1)
  %26 = getelementptr inbounds [14 x i8], ptr %5, i64 0, i64 0
  %27 = getelementptr inbounds i8, ptr %26, i64 7
  call void @setup_des_key(ptr noundef %27, ptr noundef %7)
  %28 = load ptr, ptr %4, align 8, !tbaa !4
  %29 = getelementptr inbounds i8, ptr %28, i64 8
  call void @DES_ecb_encrypt(ptr noundef @Curl_ntlm_core_mk_lm_hash.magic, ptr noundef %29, ptr noundef %7, i32 noundef 1)
  %30 = load ptr, ptr %4, align 8, !tbaa !4
  %31 = getelementptr inbounds i8, ptr %30, i64 16
  call void @llvm.memset.p0.i64(ptr align 1 %31, i8 0, i64 5, i1 false)
  call void @llvm.lifetime.end.p0(i64 128, ptr %7) #7
  call void @llvm.lifetime.end.p0(i64 8, ptr %6) #7
  call void @llvm.lifetime.end.p0(i64 14, ptr %5) #7
  ret i32 0
}