; Function Attrs: nounwind uwtable
define dso_local noundef i32 @Curl_ntlm_core_mk_lm_hash(ptr noundef %0, ptr noundef %1) local_unnamed_addr #0 {
  %3 = alloca [8 x i8], align 1
  %4 = alloca [8 x i8], align 1
  %5 = alloca [14 x i8], align 1
  %6 = alloca %struct.DES_ks, align 4
  call void @llvm.lifetime.start.p0(i64 14, ptr nonnull %5) #8
  %7 = tail call i64 @strlen(ptr noundef nonnull dereferenceable(1) %0) #9
  %spec.select = tail call i64 @llvm.umin.i64(i64 %7, i64 14)
  call void @Curl_strntoupper(ptr noundef nonnull %5, ptr noundef nonnull %0, i64 noundef %spec.select) #8
  %8 = getelementptr inbounds nuw [14 x i8], ptr %5, i64 0, i64 %spec.select
  %9 = sub nuw nsw i64 14, %spec.select
  call void @llvm.memset.p0.i64(ptr nonnull align 1 %8, i8 0, i64 %9, i1 false)
  call void @llvm.lifetime.start.p0(i64 128, ptr nonnull %6) #8
  call void @llvm.lifetime.start.p0(i64 8, ptr nonnull %4) #8
  %10 = load i8, ptr %5, align 1, !tbaa !4
  store i8 %10, ptr %4, align 1, !tbaa !4
  %11 = getelementptr inbounds nuw i8, ptr %5, i64 1
  %12 = load i8, ptr %11, align 1, !tbaa !4
  %13 = call i8 @llvm.fshl.i8(i8 %10, i8 %12, i8 7)
  %14 = getelementptr inbounds nuw i8, ptr %4, i64 1
  store i8 %13, ptr %14, align 1, !tbaa !4
  %15 = getelementptr inbounds nuw i8, ptr %5, i64 2
  %16 = load i8, ptr %15, align 1, !tbaa !4
  %17 = call i8 @llvm.fshl.i8(i8 %12, i8 %16, i8 6)
  %18 = getelementptr inbounds nuw i8, ptr %4, i64 2
  store i8 %17, ptr %18, align 1, !tbaa !4
  %19 = getelementptr inbounds nuw i8, ptr %5, i64 3
  %20 = load i8, ptr %19, align 1, !tbaa !4
  %21 = call i8 @llvm.fshl.i8(i8 %16, i8 %20, i8 5)
  %22 = getelementptr inbounds nuw i8, ptr %4, i64 3
  store i8 %21, ptr %22, align 1, !tbaa !4
  %23 = getelementptr inbounds nuw i8, ptr %5, i64 4
  %24 = load i8, ptr %23, align 1, !tbaa !4
  %25 = call i8 @llvm.fshl.i8(i8 %20, i8 %24, i8 4)
  %26 = getelementptr inbounds nuw i8, ptr %4, i64 4
  store i8 %25, ptr %26, align 1, !tbaa !4
  %27 = getelementptr inbounds nuw i8, ptr %5, i64 5
  %28 = load i8, ptr %27, align 1, !tbaa !4
  %29 = call i8 @llvm.fshl.i8(i8 %24, i8 %28, i8 3)
  %30 = getelementptr inbounds nuw i8, ptr %4, i64 5
  store i8 %29, ptr %30, align 1, !tbaa !4
  %31 = getelementptr inbounds nuw i8, ptr %5, i64 6
  %32 = load i8, ptr %31, align 1, !tbaa !4
  %33 = call i8 @llvm.fshl.i8(i8 %28, i8 %32, i8 2)
  %34 = getelementptr inbounds nuw i8, ptr %4, i64 6
  store i8 %33, ptr %34, align 1, !tbaa !4
  %35 = shl i8 %32, 1
  %36 = getelementptr inbounds nuw i8, ptr %4, i64 7
  store i8 %35, ptr %36, align 1, !tbaa !4
  call void @DES_set_odd_parity(ptr noundef nonnull %4) #8
  call void @DES_set_key_unchecked(ptr noundef nonnull %4, ptr noundef nonnull %6) #8
  call void @llvm.lifetime.end.p0(i64 8, ptr nonnull %4) #8
  call void @DES_ecb_encrypt(ptr noundef nonnull @Curl_ntlm_core_mk_lm_hash.magic, ptr noundef %1, ptr noundef nonnull %6, i32 noundef 1) #8
  %37 = getelementptr inbounds nuw i8, ptr %5, i64 7
  call void @llvm.lifetime.start.p0(i64 8, ptr nonnull %3) #8
  %38 = load i8, ptr %37, align 1, !tbaa !4
  store i8 %38, ptr %3, align 1, !tbaa !4
  %39 = getelementptr inbounds nuw i8, ptr %5, i64 8
  %40 = load i8, ptr %39, align 1, !tbaa !4
  %41 = call i8 @llvm.fshl.i8(i8 %38, i8 %40, i8 7)
  %42 = getelementptr inbounds nuw i8, ptr %3, i64 1
  store i8 %41, ptr %42, align 1, !tbaa !4
  %43 = getelementptr inbounds nuw i8, ptr %5, i64 9
  %44 = load i8, ptr %43, align 1, !tbaa !4
  %45 = call i8 @llvm.fshl.i8(i8 %40, i8 %44, i8 6)
  %46 = getelementptr inbounds nuw i8, ptr %3, i64 2
  store i8 %45, ptr %46, align 1, !tbaa !4
  %47 = getelementptr inbounds nuw i8, ptr %5, i64 10
  %48 = load i8, ptr %47, align 1, !tbaa !4
  %49 = call i8 @llvm.fshl.i8(i8 %44, i8 %48, i8 5)
  %50 = getelementptr inbounds nuw i8, ptr %3, i64 3
  store i8 %49, ptr %50, align 1, !tbaa !4
  %51 = getelementptr inbounds nuw i8, ptr %5, i64 11
  %52 = load i8, ptr %51, align 1, !tbaa !4
  %53 = call i8 @llvm.fshl.i8(i8 %48, i8 %52, i8 4)
  %54 = getelementptr inbounds nuw i8, ptr %3, i64 4
  store i8 %53, ptr %54, align 1, !tbaa !4
  %55 = getelementptr inbounds nuw i8, ptr %5, i64 12
  %56 = load i8, ptr %55, align 1, !tbaa !4
  %57 = call i8 @llvm.fshl.i8(i8 %52, i8 %56, i8 3)
  %58 = getelementptr inbounds nuw i8, ptr %3, i64 5
  store i8 %57, ptr %58, align 1, !tbaa !4
  %59 = getelementptr inbounds nuw i8, ptr %5, i64 13
  %60 = load i8, ptr %59, align 1, !tbaa !4
  %61 = call i8 @llvm.fshl.i8(i8 %56, i8 %60, i8 2)
  %62 = getelementptr inbounds nuw i8, ptr %3, i64 6
  store i8 %61, ptr %62, align 1, !tbaa !4
  %63 = shl i8 %60, 1
  %64 = getelementptr inbounds nuw i8, ptr %3, i64 7
  store i8 %63, ptr %64, align 1, !tbaa !4
  call void @DES_set_odd_parity(ptr noundef nonnull %3) #8
  call void @DES_set_key_unchecked(ptr noundef nonnull %3, ptr noundef nonnull %6) #8
  call void @llvm.lifetime.end.p0(i64 8, ptr nonnull %3) #8
  %65 = getelementptr inbounds nuw i8, ptr %1, i64 8
  call void @DES_ecb_encrypt(ptr noundef nonnull @Curl_ntlm_core_mk_lm_hash.magic, ptr noundef nonnull %65, ptr noundef nonnull %6, i32 noundef 1) #8
  %66 = getelementptr inbounds nuw i8, ptr %1, i64 16
  call void @llvm.memset.p0.i64(ptr noundef nonnull align 1 dereferenceable(5) %66, i8 0, i64 5, i1 false)
  call void @llvm.lifetime.end.p0(i64 128, ptr nonnull %6) #8
  call void @llvm.lifetime.end.p0(i64 14, ptr nonnull %5) #8
  ret i32 0
}